target datalayout = "e-m:e-p270:32:32-p271:32:32-p272:64:64-i64:64-i128:128-f80:128-n8:16:32:64-S128"
target triple = "x86_64-pc-linux-gnu"

@.str = private unnamed_addr constant [34 x i8] c"../openssl/crypto/evp/evp_fetch.c\00", align 1
@.str.4 = private unnamed_addr constant [1 x i8] zeroinitializer, align 1
@__func__.evp_get_global_properties_str = private unnamed_addr constant [30 x i8] c"evp_get_global_properties_str\00", align 1

; Function Attrs: nounwind uwtable
define ptr @evp_get_global_properties_str(ptr noundef %0, i32 noundef %1) #0 {
  %3 = alloca ptr, align 8
  %4 = alloca ptr, align 8
  %5 = alloca i32, align 4
  %6 = alloca ptr, align 8
  %7 = alloca ptr, align 8
  %8 = alloca i64, align 8
  %9 = alloca i32, align 4
  store ptr %0, ptr %4, align 8, !tbaa !3
  store i32 %1, ptr %5, align 4, !tbaa !8
  call void @llvm.lifetime.start.p0(i64 8, ptr %6) #6
  %10 = load ptr, ptr %4, align 8, !tbaa !3
  %11 = load i32, ptr %5, align 4, !tbaa !8
  %12 = call ptr @ossl_ctx_global_properties(ptr noundef %10, i32 noundef %11)
  store ptr %12, ptr %6, align 8, !tbaa !33
  call void @llvm.lifetime.start.p0(i64 8, ptr %7) #6
  store ptr null, ptr %7, align 8, !tbaa !10
  call void @llvm.lifetime.start.p0(i64 8, ptr %8) #6
  %13 = load ptr, ptr %6, align 8, !tbaa !33
  %14 = icmp eq ptr %13, null
  br i1 %14, label %15, label %17

15:                                               ; preds = %2
  %16 = call noalias ptr @CRYPTO_strdup(ptr noundef @.str.4, ptr noundef @.str, i32 noundef 590)
  store ptr %16, ptr %3, align 8
  store i32 1, ptr %9, align 4
  br label %43

17:                                               ; preds = %2
  %18 = load ptr, ptr %4, align 8, !tbaa !3
  %19 = load ptr, ptr %6, align 8, !tbaa !33
  %20 = load ptr, ptr %19, align 8, !tbaa !31
  %21 = call i64 @ossl_property_list_to_string(ptr noundef %18, ptr noundef %20, ptr noundef null, i64 noundef 0)
  store i64 %21, ptr %8, align 8, !tbaa !35
  %22 = load i64, ptr %8, align 8, !tbaa !35
  %23 = icmp eq i64 %22, 0
  br i1 %23, label %24, label %25

24:                                               ; preds = %17
  call void @ERR_new()
  call void @ERR_set_debug(ptr noundef @.str, i32 noundef 594, ptr noundef @__func__.evp_get_global_properties_str)
  call void (i32, i32, ptr, ...) @ERR_set_error(i32 noundef 6, i32 noundef 786691, ptr noundef null)
  store ptr null, ptr %3, align 8
  store i32 1, ptr %9, align 4
  br label %43

25:                                               ; preds = %17
  %26 = load i64, ptr %8, align 8, !tbaa !35
  %27 = call noalias ptr @CRYPTO_malloc(i64 noundef %26, ptr noundef @.str, i32 noundef 598)
  store ptr %27, ptr %7, align 8, !tbaa !10
  %28 = load ptr, ptr %7, align 8, !tbaa !10
  %29 = icmp eq ptr %28, null
  br i1 %29, label %30, label %31

30:                                               ; preds = %25
  store ptr null, ptr %3, align 8
  store i32 1, ptr %9, align 4
  br label %43

31:                                               ; preds = %25
  %32 = load ptr, ptr %4, align 8, !tbaa !3
  %33 = load ptr, ptr %6, align 8, !tbaa !33
  %34 = load ptr, ptr %33, align 8, !tbaa !31
  %35 = load ptr, ptr %7, align 8, !tbaa !10
  %36 = load i64, ptr %8, align 8, !tbaa !35
  %37 = call i64 @ossl_property_list_to_string(ptr noundef %32, ptr noundef %34, ptr noundef %35, i64 noundef %36)
  %38 = icmp eq i64 %37, 0
  br i1 %38, label %39, label %41

39:                                               ; preds = %31
  call void @ERR_new()
  call void @ERR_set_debug(ptr noundef @.str, i32 noundef 602, ptr noundef @__func__.evp_get_global_properties_str)
  call void (i32, i32, ptr, ...) @ERR_set_error(i32 noundef 6, i32 noundef 786691, ptr noundef null)
  %40 = load ptr, ptr %7, align 8, !tbaa !10
  call void @CRYPTO_free(ptr noundef %40, ptr noundef @.str, i32 noundef 603)
  store ptr null, ptr %3, align 8
  store i32 1, ptr %9, align 4
  br label %43

41:                                               ; preds = %31
  %42 = load ptr, ptr %7, align 8, !tbaa !10
  store ptr %42, ptr %3, align 8
  store i32 1, ptr %9, align 4
  br label %43

43:                                               ; preds = %41, %39, %30, %24, %15
  call void @llvm.lifetime.end.p0(i64 8, ptr %8) #6
  call void @llvm.lifetime.end.p0(i64 8, ptr %7) #6
  call void @llvm.lifetime.end.p0(i64 8, ptr %6) #6
  %44 = load ptr, ptr %3, align 8
  ret ptr %44
}