; Function Attrs: nounwind uwtable
define ptr @evp_get_global_properties_str(ptr noundef %0, i32 noundef %1) local_unnamed_addr #0 {
  %3 = tail call ptr @ossl_ctx_global_properties(ptr noundef %0, i32 noundef %1) #5
  %4 = icmp eq ptr %3, null
  br i1 %4, label %5, label %7

5:                                                ; preds = %2
  %6 = tail call noalias ptr @CRYPTO_strdup(ptr noundef nonnull @.str.4, ptr noundef nonnull @.str, i32 noundef 590) #5
  br label %20

7:                                                ; preds = %2
  %8 = load ptr, ptr %3, align 8, !tbaa !24
  %9 = tail call i64 @ossl_property_list_to_string(ptr noundef %0, ptr noundef %8, ptr noundef null, i64 noundef 0) #5
  %10 = icmp eq i64 %9, 0
  br i1 %10, label %11, label %12

11:                                               ; preds = %7
  tail call void @ERR_new() #5
  tail call void @ERR_set_debug(ptr noundef nonnull @.str, i32 noundef 594, ptr noundef nonnull @__func__.evp_get_global_properties_str) #5
  tail call void (i32, i32, ptr, ...) @ERR_set_error(i32 noundef 6, i32 noundef 786691, ptr noundef null) #5
  br label %20

12:                                               ; preds = %7
  %13 = tail call noalias ptr @CRYPTO_malloc(i64 noundef %9, ptr noundef nonnull @.str, i32 noundef 598) #5
  %14 = icmp eq ptr %13, null
  br i1 %14, label %20, label %15

15:                                               ; preds = %12
  %16 = load ptr, ptr %3, align 8, !tbaa !24
  %17 = tail call i64 @ossl_property_list_to_string(ptr noundef %0, ptr noundef %16, ptr noundef nonnull %13, i64 noundef %9) #5
  %18 = icmp eq i64 %17, 0
  br i1 %18, label %19, label %20

19:                                               ; preds = %15
  tail call void @ERR_new() #5
  tail call void @ERR_set_debug(ptr noundef nonnull @.str, i32 noundef 602, ptr noundef nonnull @__func__.evp_get_global_properties_str) #5
  tail call void (i32, i32, ptr, ...) @ERR_set_error(i32 noundef 6, i32 noundef 786691, ptr noundef null) #5
  tail call void @CRYPTO_free(ptr noundef nonnull %13, ptr noundef nonnull @.str, i32 noundef 603) #5
  br label %20

20:                                               ; preds = %15, %12, %19, %11, %5
  %.0 = phi ptr [ %6, %5 ], [ null, %11 ], [ null, %19 ], [ null, %12 ], [ %13, %15 ]
  ret ptr %.0
}